; Function Attrs: mustprogress nofree norecurse nosync nounwind willreturn memory(argmem: readwrite) uwtable
define dso_local void @_ZN5clang9FieldDecl18setCapturedVLATypeEPKNS_17VariableArrayTypeE(ptr nocapture noundef nonnull align 8 dereferenceable(80) %0, ptr noundef %1) local_unnamed_addr #11 align 2 {
  %3 = getelementptr inbounds nuw i8, ptr %0, i64 68
  %4 = load i32, ptr %3, align 4
  %5 = or i32 %4, 12
  store i32 %5, ptr %3, align 4
  %6 = getelementptr inbounds nuw i8, ptr %0, i64 72
  store ptr %1, ptr %6, align 8
  ret void
}